target datalayout = "e-m:e-p270:32:32-p271:32:32-p272:64:64-i64:64-i128:128-f80:128-n8:16:32:64-S128"
target triple = "x86_64-pc-linux-gnu"

%struct.b2Vec2 = type { float, float }
%struct.b2BodyId = type { i32, i16, i16 }
%struct.b2Rot = type { float, float }
%struct.b2WorldId = type { i16, i16 }
%struct.b2ShapeDef = type { ptr, float, float, float, float, i32, float, %struct.b2Filter, i32, i8, i8, i8, i8, i8, i8, i32 }
%struct.b2Filter = type { i64, i64, i32 }
%struct.b2BodyDef = type { i32, %struct.b2Vec2, %struct.b2Rot, %struct.b2Vec2, float, float, float, float, float, ptr, ptr, i8, i8, i8, i8, i8, i8, i32 }
%struct.b2ShapeId = type { i32, i16, i16 }
%struct.b2Polygon = type { [8 x %struct.b2Vec2], [8 x %struct.b2Vec2], %struct.b2Vec2, float, i32 }

@b2Vec2_zero = internal constant %struct.b2Vec2 zeroinitializer, align 4

; Function Attrs: nounwind uwtable
define void @CreateSmash(i32 %0) #6 {
  %2 = alloca %struct.b2WorldId, align 2
  %3 = alloca %struct.b2Polygon, align 4
  %4 = alloca %struct.b2BodyDef, align 8
  %5 = alloca %struct.b2Vec2, align 4
  %6 = alloca %struct.b2Vec2, align 4
  %7 = alloca %struct.b2BodyId, align 4
  %8 = alloca %struct.b2ShapeDef, align 8
  %9 = alloca %struct.b2ShapeId, align 4
  %10 = alloca float, align 4
  %11 = alloca %struct.b2Polygon, align 4
  %12 = alloca %struct.b2BodyDef, align 8
  %13 = alloca %struct.b2ShapeDef, align 8
  %14 = alloca i32, align 4
  %15 = alloca i32, align 4
  %16 = alloca i32, align 4
  %17 = alloca i32, align 4
  %18 = alloca i32, align 4
  %19 = alloca %struct.b2BodyId, align 4
  %20 = alloca %struct.b2ShapeId, align 4
  store i32 %0, ptr %2, align 2
  %21 = load i32, ptr %2, align 2
  %22 = load <2 x float>, ptr @b2Vec2_zero, align 4
  call void @b2World_SetGravity(i32 %21, <2 x float> %22)
  call void @llvm.lifetime.start.p0(i64 144, ptr %3) #9
  call void @b2MakeBox(ptr dead_on_unwind writable sret(%struct.b2Polygon) align 4 %3, float noundef 4.000000e+00, float noundef 4.000000e+00)
  call void @llvm.lifetime.start.p0(i64 80, ptr %4) #9
  call void @b2DefaultBodyDef(ptr dead_on_unwind writable sret(%struct.b2BodyDef) align 8 %4)
  %23 = getelementptr inbounds nuw %struct.b2BodyDef, ptr %4, i32 0, i32 0
  store i32 2, ptr %23, align 8, !tbaa !19
  %24 = getelementptr inbounds nuw %struct.b2BodyDef, ptr %4, i32 0, i32 1
  %25 = getelementptr inbounds nuw %struct.b2Vec2, ptr %5, i32 0, i32 0
  store float -2.000000e+01, ptr %25, align 4, !tbaa !24
  %26 = getelementptr inbounds nuw %struct.b2Vec2, ptr %5, i32 0, i32 1
  store float 0.000000e+00, ptr %26, align 4, !tbaa !25
  call void @llvm.memcpy.p0.p0.i64(ptr align 4 %24, ptr align 4 %5, i64 8, i1 false), !tbaa.struct !26
  %27 = getelementptr inbounds nuw %struct.b2BodyDef, ptr %4, i32 0, i32 3
  %28 = getelementptr inbounds nuw %struct.b2Vec2, ptr %6, i32 0, i32 0
  store float 4.000000e+01, ptr %28, align 4, !tbaa !24
  %29 = getelementptr inbounds nuw %struct.b2Vec2, ptr %6, i32 0, i32 1
  store float 0.000000e+00, ptr %29, align 4, !tbaa !25
  call void @llvm.memcpy.p0.p0.i64(ptr align 4 %27, ptr align 4 %6, i64 8, i1 false), !tbaa.struct !26
  call void @llvm.lifetime.start.p0(i64 8, ptr %7) #9
  %30 = load i32, ptr %2, align 2
  %31 = call i64 @b2CreateBody(i32 %30, ptr noundef %4)
  store i64 %31, ptr %7, align 4
  call void @llvm.lifetime.start.p0(i64 72, ptr %8) #9
  call void @b2DefaultShapeDef(ptr dead_on_unwind writable sret(%struct.b2ShapeDef) align 8 %8)
  %32 = getelementptr inbounds nuw %struct.b2ShapeDef, ptr %8, i32 0, i32 6
  store float 8.000000e+00, ptr %32, align 4, !tbaa !10
  %33 = load i64, ptr %7, align 4
  %34 = call i64 @b2CreatePolygonShape(i64 %33, ptr noundef %8, ptr noundef %3)
  store i64 %34, ptr %9, align 4
  call void @llvm.lifetime.end.p0(i64 72, ptr %8) #9
  call void @llvm.lifetime.end.p0(i64 8, ptr %7) #9
  call void @llvm.lifetime.end.p0(i64 80, ptr %4) #9
  call void @llvm.lifetime.end.p0(i64 144, ptr %3) #9
  call void @llvm.lifetime.start.p0(i64 4, ptr %10) #9
  store float 0x3FD99999A0000000, ptr %10, align 4, !tbaa !18
  call void @llvm.lifetime.start.p0(i64 144, ptr %11) #9
  %35 = load float, ptr %10, align 4, !tbaa !18
  %36 = fmul float 5.000000e-01, %35
  call void @b2MakeSquare(ptr dead_on_unwind writable sret(%struct.b2Polygon) align 4 %11, float noundef %36)
  call void @llvm.lifetime.start.p0(i64 80, ptr %12) #9
  call void @b2DefaultBodyDef(ptr dead_on_unwind writable sret(%struct.b2BodyDef) align 8 %12)
  %37 = getelementptr inbounds nuw %struct.b2BodyDef, ptr %12, i32 0, i32 0
  store i32 2, ptr %37, align 8, !tbaa !19
  %38 = getelementptr inbounds nuw %struct.b2BodyDef, ptr %12, i32 0, i32 12
  store i8 0, ptr %38, align 1, !tbaa !78
  call void @llvm.lifetime.start.p0(i64 72, ptr %13) #9
  call void @b2DefaultShapeDef(ptr dead_on_unwind writable sret(%struct.b2ShapeDef) align 8 %13)
  call void @llvm.lifetime.start.p0(i64 4, ptr %14) #9
  store i32 120, ptr %14, align 4, !tbaa !3
  call void @llvm.lifetime.start.p0(i64 4, ptr %15) #9
  store i32 80, ptr %15, align 4, !tbaa !3
  call void @llvm.lifetime.start.p0(i64 4, ptr %16) #9
  store i32 0, ptr %16, align 4, !tbaa !3
  br label %39

39:                                               ; preds = %76, %1
  %40 = load i32, ptr %16, align 4, !tbaa !3
  %41 = load i32, ptr %14, align 4, !tbaa !3
  %42 = icmp slt i32 %40, %41
  br i1 %42, label %44, label %43

43:                                               ; preds = %39
  store i32 2, ptr %17, align 4
  call void @llvm.lifetime.end.p0(i64 4, ptr %16) #9
  br label %79

44:                                               ; preds = %39
  call void @llvm.lifetime.start.p0(i64 4, ptr %18) #9
  store i32 0, ptr %18, align 4, !tbaa !3
  br label %45

45:                                               ; preds = %72, %44
  %46 = load i32, ptr %18, align 4, !tbaa !3
  %47 = load i32, ptr %15, align 4, !tbaa !3
  %48 = icmp slt i32 %46, %47
  br i1 %48, label %50, label %49

49:                                               ; preds = %45
  store i32 5, ptr %17, align 4
  call void @llvm.lifetime.end.p0(i64 4, ptr %18) #9
  br label %75

50:                                               ; preds = %45
  %51 = load i32, ptr %16, align 4, !tbaa !3
  %52 = sitofp i32 %51 to float
  %53 = load float, ptr %10, align 4, !tbaa !18
  %54 = fmul float %52, %53
  %55 = fadd float %54, 3.000000e+01
  %56 = getelementptr inbounds nuw %struct.b2BodyDef, ptr %12, i32 0, i32 1
  %57 = getelementptr inbounds nuw %struct.b2Vec2, ptr %56, i32 0, i32 0
  store float %55, ptr %57, align 4, !tbaa !79
  %58 = load i32, ptr %18, align 4, !tbaa !3
  %59 = sitofp i32 %58 to float
  %60 = load i32, ptr %15, align 4, !tbaa !3
  %61 = sitofp i32 %60 to float
  %62 = fdiv float %61, 2.000000e+00
  %63 = fsub float %59, %62
  %64 = load float, ptr %10, align 4, !tbaa !18
  %65 = fmul float %63, %64
  %66 = getelementptr inbounds nuw %struct.b2BodyDef, ptr %12, i32 0, i32 1
  %67 = getelementptr inbounds nuw %struct.b2Vec2, ptr %66, i32 0, i32 1
  store float %65, ptr %67, align 4, !tbaa !80
  call void @llvm.lifetime.start.p0(i64 8, ptr %19) #9
  %68 = load i32, ptr %2, align 2
  %69 = call i64 @b2CreateBody(i32 %68, ptr noundef %12)
  store i64 %69, ptr %19, align 4
  %70 = load i64, ptr %19, align 4
  %71 = call i64 @b2CreatePolygonShape(i64 %70, ptr noundef %13, ptr noundef %11)
  store i64 %71, ptr %20, align 4
  call void @llvm.lifetime.end.p0(i64 8, ptr %19) #9
  br label %72

72:                                               ; preds = %50
  %73 = load i32, ptr %18, align 4, !tbaa !3
  %74 = add nsw i32 %73, 1
  store i32 %74, ptr %18, align 4, !tbaa !3
  br label %45, !llvm.loop !81

75:                                               ; preds = %49
  br label %76

76:                                               ; preds = %75
  %77 = load i32, ptr %16, align 4, !tbaa !3
  %78 = add nsw i32 %77, 1
  store i32 %78, ptr %16, align 4, !tbaa !3
  br label %39, !llvm.loop !82

79:                                               ; preds = %43
  call void @llvm.lifetime.end.p0(i64 4, ptr %15) #9
  call void @llvm.lifetime.end.p0(i64 4, ptr %14) #9
  call void @llvm.lifetime.end.p0(i64 72, ptr %13) #9
  call void @llvm.lifetime.end.p0(i64 80, ptr %12) #9
  call void @llvm.lifetime.end.p0(i64 144, ptr %11) #9
  call void @llvm.lifetime.end.p0(i64 4, ptr %10) #9
  ret void
}