; Function Attrs: nounwind uwtable
define void @CreateSmash(i32 %0) local_unnamed_addr #6 {
  %2 = alloca %struct.b2Polygon, align 4
  %3 = alloca %struct.b2BodyDef, align 8
  %4 = alloca %struct.b2ShapeDef, align 8
  %5 = alloca %struct.b2Polygon, align 4
  %6 = alloca %struct.b2BodyDef, align 8
  %7 = alloca %struct.b2ShapeDef, align 8
  tail call void @b2World_SetGravity(i32 %0, <2 x float> zeroinitializer) #8
  call void @llvm.lifetime.start.p0(i64 144, ptr nonnull %2) #8
  call void @b2MakeBox(ptr dead_on_unwind nonnull writable sret(%struct.b2Polygon) align 4 %2, float noundef 4.000000e+00, float noundef 4.000000e+00) #8
  call void @llvm.lifetime.start.p0(i64 80, ptr nonnull %3) #8
  call void @b2DefaultBodyDef(ptr dead_on_unwind nonnull writable sret(%struct.b2BodyDef) align 8 %3) #8
  store i32 2, ptr %3, align 8, !tbaa !15
  %8 = getelementptr inbounds nuw i8, ptr %3, i64 4
  store float -2.000000e+01, ptr %8, align 4, !tbaa !20
  %.sroa.216.0..sroa_idx = getelementptr inbounds nuw i8, ptr %3, i64 8
  store float 0.000000e+00, ptr %.sroa.216.0..sroa_idx, align 8, !tbaa !20
  %9 = getelementptr inbounds nuw i8, ptr %3, i64 20
  store float 4.000000e+01, ptr %9, align 4, !tbaa !20
  %.sroa.2.0..sroa_idx = getelementptr inbounds nuw i8, ptr %3, i64 24
  store float 0.000000e+00, ptr %.sroa.2.0..sroa_idx, align 8, !tbaa !20
  %10 = call i64 @b2CreateBody(i32 %0, ptr noundef nonnull %3) #8
  call void @llvm.lifetime.start.p0(i64 72, ptr nonnull %4) #8
  call void @b2DefaultShapeDef(ptr dead_on_unwind nonnull writable sret(%struct.b2ShapeDef) align 8 %4) #8
  %11 = getelementptr inbounds nuw i8, ptr %4, i64 28
  store float 8.000000e+00, ptr %11, align 4, !tbaa !3
  %12 = call i64 @b2CreatePolygonShape(i64 %10, ptr noundef nonnull %4, ptr noundef nonnull %2) #8
  call void @llvm.lifetime.end.p0(i64 72, ptr nonnull %4) #8
  call void @llvm.lifetime.end.p0(i64 80, ptr nonnull %3) #8
  call void @llvm.lifetime.end.p0(i64 144, ptr nonnull %2) #8
  call void @llvm.lifetime.start.p0(i64 144, ptr nonnull %5) #8
  call void @b2MakeSquare(ptr dead_on_unwind nonnull writable sret(%struct.b2Polygon) align 4 %5, float noundef 0x3FC99999A0000000) #8
  call void @llvm.lifetime.start.p0(i64 80, ptr nonnull %6) #8
  call void @b2DefaultBodyDef(ptr dead_on_unwind nonnull writable sret(%struct.b2BodyDef) align 8 %6) #8
  store i32 2, ptr %6, align 8, !tbaa !15
  %13 = getelementptr inbounds nuw i8, ptr %6, i64 65
  store i8 0, ptr %13, align 1, !tbaa !66
  call void @llvm.lifetime.start.p0(i64 72, ptr nonnull %7) #8
  call void @b2DefaultShapeDef(ptr dead_on_unwind nonnull writable sret(%struct.b2ShapeDef) align 8 %7) #8
  %14 = getelementptr inbounds nuw i8, ptr %6, i64 4
  %15 = getelementptr inbounds nuw i8, ptr %6, i64 8
  br label %.preheader

.preheader:                                       ; preds = %1, %20
  %.022 = phi i32 [ 0, %1 ], [ %21, %20 ]
  %16 = uitofp nneg i32 %.022 to float
  %17 = fmul float %16, 0x3FD99999A0000000
  %18 = fadd float %17, 3.000000e+01
  br label %22

19:                                               ; preds = %20
  call void @llvm.lifetime.end.p0(i64 72, ptr nonnull %7) #8
  call void @llvm.lifetime.end.p0(i64 80, ptr nonnull %6) #8
  call void @llvm.lifetime.end.p0(i64 144, ptr nonnull %5) #8
  ret void

20:                                               ; preds = %22
  %21 = add nuw nsw i32 %.022, 1
  %exitcond23.not = icmp eq i32 %21, 120
  br i1 %exitcond23.not, label %19, label %.preheader, !llvm.loop !67

22:                                               ; preds = %.preheader, %22
  %.02021 = phi i32 [ 0, %.preheader ], [ %28, %22 ]
  store float %18, ptr %14, align 4, !tbaa !68
  %23 = uitofp nneg i32 %.02021 to float
  %24 = fadd float %23, -4.000000e+01
  %25 = fmul float %24, 0x3FD99999A0000000
  store float %25, ptr %15, align 8, !tbaa !69
  %26 = call i64 @b2CreateBody(i32 %0, ptr noundef nonnull %6) #8
  %27 = call i64 @b2CreatePolygonShape(i64 %26, ptr noundef nonnull %7, ptr noundef nonnull %5) #8
  %28 = add nuw nsw i32 %.02021, 1
  %exitcond.not = icmp eq i32 %28, 80
  br i1 %exitcond.not, label %20, label %22, !llvm.loop !70
}